; Function Attrs: mustprogress nounwind uwtable
define hidden void @_ZNK20ZBarrierSetAssembler30generate_c1_store_barrier_stubEP13LIR_AssemblerP19ZStoreBarrierStubC1(ptr nocapture noundef nonnull readnone align 8 dereferenceable(56) %0, ptr noundef %1, ptr noundef %2) local_unnamed_addr #1 align 2 {
  %4 = alloca %class.Label, align 8
  %5 = alloca %class.Label, align 8
  %6 = alloca %class.Address, align 8
  %7 = alloca %class.LIR_Opr, align 8
  %8 = alloca %class.AddressLiteral, align 8
  %9 = alloca %class.RuntimeAddress, align 8
  %10 = load ptr, ptr %1, align 8
  %11 = getelementptr inbounds i8, ptr %2, i64 8
  tail call void @_ZN17AbstractAssembler4bindER5Label(ptr noundef nonnull align 8 dereferenceable(24) %10, ptr noundef nonnull align 8 dereferenceable(33) %11) #12
  store i32 -1, ptr %4, align 8
  %12 = getelementptr inbounds i8, ptr %4, i64 20
  store i32 0, ptr %12, align 4
  %13 = getelementptr inbounds i8, ptr %4, i64 24
  store ptr null, ptr %13, align 8
  %14 = getelementptr inbounds i8, ptr %4, i64 32
  store i8 0, ptr %14, align 8
  store i32 -1, ptr %5, align 8
  %15 = getelementptr inbounds i8, ptr %5, i64 20
  store i32 0, ptr %15, align 4
  %16 = getelementptr inbounds i8, ptr %5, i64 24
  store ptr null, ptr %16, align 8
  %17 = getelementptr inbounds i8, ptr %5, i64 32
  store i8 0, ptr %17, align 8
  %18 = load ptr, ptr %1, align 8
  %19 = tail call i64 @_ZNK19ZStoreBarrierStubC18ref_addrEv(ptr noundef nonnull align 8 dereferenceable(136) %2) #12
  %20 = inttoptr i64 %19 to ptr
  %21 = load ptr, ptr %20, align 8
  %22 = getelementptr inbounds i8, ptr %21, i64 8
  %23 = load ptr, ptr %22, align 8
  %24 = tail call noundef ptr %23(ptr noundef nonnull align 8 dereferenceable(8) %20) #12
  call void @_ZN13LIR_Assembler10as_AddressEP11LIR_Address(ptr dead_on_unwind nonnull writable sret(%class.Address) align 8 %6, ptr noundef nonnull align 8 dereferenceable(96) %1, ptr noundef %24) #12
  %25 = call noundef zeroext i1 @_ZNK19ZStoreBarrierStubC19is_atomicEv(ptr noundef nonnull align 8 dereferenceable(136) %2) #12
  %26 = getelementptr inbounds i8, ptr %2, i64 48
  call void @_ZNK20ZBarrierSetAssembler20store_barrier_mediumEP14MacroAssembler7Address8RegisterbbR5LabelS5_S5_(ptr nonnull align 8 poison, ptr noundef %18, ptr noundef nonnull %6, i32 10, i1 noundef zeroext false, i1 noundef zeroext %25, ptr noundef nonnull align 8 dereferenceable(33) %26, ptr noundef nonnull align 8 dereferenceable(33) %4, ptr noundef nonnull align 8 dereferenceable(33) %5)
  %27 = load ptr, ptr %1, align 8
  call void @_ZN17AbstractAssembler4bindER5Label(ptr noundef nonnull align 8 dereferenceable(24) %27, ptr noundef nonnull align 8 dereferenceable(33) %4) #12
  %28 = call i64 @_ZNK19ZStoreBarrierStubC18ref_addrEv(ptr noundef nonnull align 8 dereferenceable(136) %2) #12
  %29 = call i64 @_ZNK19ZStoreBarrierStubC112new_zpointerEv(ptr noundef nonnull align 8 dereferenceable(136) %2) #12
  call void @_ZN13LIR_Assembler4lealE7LIR_OprS0_13LIR_PatchCodeP12CodeEmitInfo(ptr noundef nonnull align 8 dereferenceable(96) %1, i64 %28, i64 %29, i32 noundef 0, ptr noundef null) #12
  %30 = load ptr, ptr %1, align 8
  call void @_ZN14MacroAssembler6subptrE8Registeri(ptr noundef nonnull align 8 dereferenceable(40) %30, i32 4, i32 noundef 16) #12
  %31 = call i64 @_ZNK19ZStoreBarrierStubC112new_zpointerEv(ptr noundef nonnull align 8 dereferenceable(136) %2) #12
  store i64 %31, ptr %7, align 8
  %32 = and i64 %31, 391
  %33 = icmp eq i64 %32, 131
  br i1 %33, label %34, label %36

34:                                               ; preds = %3
  %35 = call i32 @_ZNK7LIR_Opr14as_register_loEv(ptr noundef nonnull align 8 dereferenceable(8) %7) #12
  br label %_ZN7LIR_Opr19as_pointer_registerEv.exit

36:                                               ; preds = %3
  %37 = call i32 @_ZNK7LIR_Opr11as_registerEv(ptr noundef nonnull align 8 dereferenceable(8) %7) #12
  br label %_ZN7LIR_Opr19as_pointer_registerEv.exit

_ZN7LIR_Opr19as_pointer_registerEv.exit:          ; preds = %34, %36
  %.sroa.0.0.i = phi i32 [ %35, %34 ], [ %37, %36 ]
  call void @_ZN13LIR_Assembler15store_parameterE8Registeri(ptr noundef nonnull align 8 dereferenceable(96) %1, i32 %.sroa.0.0.i, i32 noundef 0) #12
  %38 = load ptr, ptr %1, align 8
  %39 = call noundef ptr @_ZNK19ZStoreBarrierStubC112runtime_stubEv(ptr noundef nonnull align 8 dereferenceable(136) %2) #12
  call void @_ZN14AddressLiteralC2EPhN9relocInfo9relocTypeE(ptr noundef nonnull align 8 dereferenceable(56) %9, ptr noundef %39, i32 noundef 6) #12
  %40 = load ptr, ptr %9, align 8
  %41 = getelementptr inbounds i8, ptr %40, i64 16
  %42 = load ptr, ptr %41, align 8
  call void %42(ptr noundef nonnull align 8 dereferenceable(20) %9, ptr noundef nonnull align 8 dereferenceable(40) %8) #12
  %43 = getelementptr inbounds i8, ptr %8, i64 40
  %44 = getelementptr inbounds i8, ptr %9, i64 40
  call void @llvm.memcpy.p0.p0.i64(ptr noundef nonnull align 8 dereferenceable(16) %43, ptr noundef nonnull align 8 dereferenceable(16) %44, i64 16, i1 false)
  call void @_ZN14MacroAssembler4callE14AddressLiteral8Register(ptr noundef nonnull align 8 dereferenceable(40) %38, ptr noundef nonnull %8, i32 0) #12
  %45 = load ptr, ptr %1, align 8
  call void @_ZN14MacroAssembler6addptrE8Registeri(ptr noundef nonnull align 8 dereferenceable(40) %45, i32 4, i32 noundef 16) #12
  %46 = load ptr, ptr %1, align 8
  call void @_ZN9Assembler3jmpER5Labelb(ptr noundef nonnull align 8 dereferenceable(40) %46, ptr noundef nonnull align 8 dereferenceable(33) %5, i1 noundef zeroext true) #12
  ret void
}